; Function Attrs: mustprogress uwtable
define hidden void @_ZN17opencv_tensorflow6OpList5ClearEv(ptr noundef nonnull align 8 dereferenceable(48) %0) unnamed_addr #3 align 2 personality ptr @__gxx_personality_v0 {
  %2 = getelementptr inbounds nuw i8, ptr %0, i64 24
  %3 = load i32, ptr %2, align 8, !tbaa !72
  %4 = icmp sgt i32 %3, 0
  br i1 %4, label %5, label %_ZN6google8protobuf16RepeatedPtrFieldIN17opencv_tensorflow5OpDefEE5ClearEv.exit

5:                                                ; preds = %1
  %6 = getelementptr inbounds nuw i8, ptr %0, i64 32
  %7 = load ptr, ptr %6, align 8, !tbaa !71
  %8 = getelementptr inbounds nuw i8, ptr %7, i64 8
  %wide.trip.count.i.i = zext nneg i32 %3 to i64
  br label %9

9:                                                ; preds = %9, %5
  %indvars.iv.i.i = phi i64 [ %indvars.iv.next.i.i, %9 ], [ 0, %5 ]
  %indvars.iv.next.i.i = add nuw nsw i64 %indvars.iv.i.i, 1
  %10 = getelementptr inbounds nuw ptr, ptr %8, i64 %indvars.iv.i.i
  %11 = load ptr, ptr %10, align 8, !tbaa !56
  tail call void @_ZN17opencv_tensorflow5OpDef5ClearEv(ptr noundef nonnull align 8 dereferenceable(128) %11)
  %exitcond.not.i.i = icmp eq i64 %indvars.iv.next.i.i, %wide.trip.count.i.i
  br i1 %exitcond.not.i.i, label %12, label %9, !llvm.loop !110

12:                                               ; preds = %9
  store i32 0, ptr %2, align 8, !tbaa !72
  br label %_ZN6google8protobuf16RepeatedPtrFieldIN17opencv_tensorflow5OpDefEE5ClearEv.exit

_ZN6google8protobuf16RepeatedPtrFieldIN17opencv_tensorflow5OpDefEE5ClearEv.exit: ; preds = %1, %12
  %13 = getelementptr inbounds nuw i8, ptr %0, i64 8
  %14 = load i64, ptr %13, align 8, !tbaa !3
  %15 = and i64 %14, 1
  %.not = icmp eq i64 %15, 0
  br i1 %.not, label %_ZN6google8protobuf8internal16InternalMetadata5ClearINS0_15UnknownFieldSetEEEvv.exit, label %16

16:                                               ; preds = %_ZN6google8protobuf16RepeatedPtrFieldIN17opencv_tensorflow5OpDefEE5ClearEv.exit
  tail call void @_ZN6google8protobuf8internal16InternalMetadata7DoClearINS0_15UnknownFieldSetEEEvv(ptr noundef nonnull align 8 dereferenceable(8) %13)
  br label %_ZN6google8protobuf8internal16InternalMetadata5ClearINS0_15UnknownFieldSetEEEvv.exit

_ZN6google8protobuf8internal16InternalMetadata5ClearINS0_15UnknownFieldSetEEEvv.exit: ; preds = %_ZN6google8protobuf16RepeatedPtrFieldIN17opencv_tensorflow5OpDefEE5ClearEv.exit, %16
  ret void
}